target datalayout = "e-m:e-p270:32:32-p271:32:32-p272:64:64-i64:64-i128:128-f80:128-n8:16:32:64-S128"
target triple = "x86_64-pc-linux-gnu"

; Function Attrs: nounwind uwtable
define internal i32 @reader(ptr noundef %0, ptr noundef %1, i32 noundef %2) #0 {
  %4 = alloca i32, align 4
  %5 = alloca ptr, align 8
  %6 = alloca ptr, align 8
  %7 = alloca i32, align 4
  store ptr %0, ptr %5, align 8, !tbaa !51
  store ptr %1, ptr %6, align 8, !tbaa !52
  store i32 %2, ptr %7, align 4, !tbaa !53
  %8 = load i32, ptr %7, align 4, !tbaa !53
  %9 = zext i32 %8 to i64
  %10 = load ptr, ptr %6, align 8, !tbaa !52
  %11 = load i32, ptr %7, align 4, !tbaa !53
  %12 = zext i32 %11 to i64
  %13 = load ptr, ptr %5, align 8, !tbaa !51
  %14 = call i64 @fread(ptr noundef %10, i64 noundef 1, i64 noundef %12, ptr noundef %13)
  %15 = icmp eq i64 %9, %14
  br i1 %15, label %20, label %16

16:                                               ; preds = %3
  %17 = load ptr, ptr %5, align 8, !tbaa !51
  %18 = call i32 @feof(ptr noundef %17) #5
  %19 = icmp ne i32 %18, 0
  br i1 %19, label %20, label %21

20:                                               ; preds = %16, %3
  store i32 0, ptr %4, align 4
  br label %22

21:                                               ; preds = %16
  store i32 10, ptr %4, align 4
  br label %22

22:                                               ; preds = %21, %20
  %23 = load i32, ptr %4, align 4
  ret i32 %23
}