; Function Attrs: nofree nounwind uwtable
define internal range(i32 0, 11) i32 @reader(ptr noundef captures(none) %0, ptr noundef captures(none) %1, i32 noundef %2) #2 {
  %4 = zext i32 %2 to i64
  %5 = tail call i64 @fread(ptr noundef %1, i64 noundef 1, i64 noundef %4, ptr noundef %0)
  %6 = icmp eq i64 %5, %4
  br i1 %6, label %9, label %7

7:                                                ; preds = %3
  %8 = tail call i32 @feof(ptr noundef %0) #4
  %.not = icmp eq i32 %8, 0
  %spec.select = select i1 %.not, i32 10, i32 0
  br label %9

9:                                                ; preds = %7, %3
  %.0 = phi i32 [ 0, %3 ], [ %spec.select, %7 ]
  ret i32 %.0
}